target datalayout = "e-m:e-p270:32:32-p271:32:32-p272:64:64-i64:64-i128:128-f80:128-n8:16:32:64-S128"
target triple = "x86_64-pc-linux-gnu"

%struct.expert_field = type { i32, i32 }

@hf_pn_io_fiber_optic_type = internal global i32 0, align 4
@hf_pn_io_fiber_optic_cable_type = internal global i32 0, align 4
@ei_pn_io_block_version = internal global %struct.expert_field zeroinitializer, align 4
@.str.1317 = private unnamed_addr constant [41 x i8] c"Block version %u.%u not implemented yet!\00", align 1

; Function Attrs: nounwind uwtable
define internal i32 @dissect_PDPortFODataReal_block(ptr noundef %0, i32 noundef %1, ptr noundef %2, ptr noundef %3, ptr noundef %4, ptr noundef %5, i8 noundef zeroext %6, i8 noundef zeroext %7, i16 noundef zeroext %8) #0 {
  %10 = alloca i32, align 4
  %11 = alloca ptr, align 8
  %12 = alloca i32, align 4
  %13 = alloca ptr, align 8
  %14 = alloca ptr, align 8
  %15 = alloca ptr, align 8
  %16 = alloca ptr, align 8
  %17 = alloca i8, align 1
  %18 = alloca i8, align 1
  %19 = alloca i16, align 2
  %20 = alloca i32, align 4
  %21 = alloca i32, align 4
  %22 = alloca i16, align 2
  %23 = alloca i32, align 4
  %24 = alloca ptr, align 8
  store ptr %0, ptr %11, align 8
  store i32 %1, ptr %12, align 4
  store ptr %2, ptr %13, align 8
  store ptr %3, ptr %14, align 8
  store ptr %4, ptr %15, align 8
  store ptr %5, ptr %16, align 8
  store i8 %6, ptr %17, align 1
  store i8 %7, ptr %18, align 1
  store i16 %8, ptr %19, align 2
  store i16 0, ptr %22, align 2
  store ptr null, ptr %24, align 8
  %25 = load i8, ptr %17, align 1
  %26 = zext i8 %25 to i32
  %27 = icmp ne i32 %26, 1
  br i1 %27, label %32, label %28

28:                                               ; preds = %9
  %29 = load i8, ptr %18, align 1
  %30 = zext i8 %29 to i32
  %31 = icmp ne i32 %30, 0
  br i1 %31, label %32, label %41

32:                                               ; preds = %28, %9
  %33 = load ptr, ptr %13, align 8
  %34 = load ptr, ptr %15, align 8
  %35 = load i8, ptr %17, align 1
  %36 = zext i8 %35 to i32
  %37 = load i8, ptr %18, align 1
  %38 = zext i8 %37 to i32
  %39 = call ptr (ptr, ptr, ptr, ptr, ...) @expert_add_info_format(ptr noundef %33, ptr noundef %34, ptr noundef @ei_pn_io_block_version, ptr noundef @.str.1317, i32 noundef %36, i32 noundef %38)
  %40 = load i32, ptr %12, align 4
  store i32 %40, ptr %10, align 4
  br label %73

41:                                               ; preds = %28
  %42 = load ptr, ptr %11, align 8
  %43 = load i32, ptr %12, align 4
  %44 = load ptr, ptr %13, align 8
  %45 = load ptr, ptr %14, align 8
  %46 = call i32 @dissect_pn_align4(ptr noundef %42, i32 noundef %43, ptr noundef %44, ptr noundef %45)
  store i32 %46, ptr %12, align 4
  %47 = load ptr, ptr %11, align 8
  %48 = load i32, ptr %12, align 4
  %49 = load ptr, ptr %13, align 8
  %50 = load ptr, ptr %14, align 8
  %51 = load ptr, ptr %16, align 8
  %52 = load i32, ptr @hf_pn_io_fiber_optic_type, align 4
  %53 = call i32 @dissect_dcerpc_uint32(ptr noundef %47, i32 noundef %48, ptr noundef %49, ptr noundef %50, ptr noundef %51, i32 noundef %52, ptr noundef %20)
  store i32 %53, ptr %12, align 4
  %54 = load ptr, ptr %11, align 8
  %55 = load i32, ptr %12, align 4
  %56 = load ptr, ptr %13, align 8
  %57 = load ptr, ptr %14, align 8
  %58 = load ptr, ptr %16, align 8
  %59 = load i32, ptr @hf_pn_io_fiber_optic_cable_type, align 4
  %60 = call i32 @dissect_dcerpc_uint32(ptr noundef %54, i32 noundef %55, ptr noundef %56, ptr noundef %57, ptr noundef %58, i32 noundef %59, ptr noundef %21)
  store i32 %60, ptr %12, align 4
  %61 = load i16, ptr %19, align 2
  %62 = zext i16 %61 to i32
  %63 = icmp ne i32 %62, 10
  br i1 %63, label %64, label %71

64:                                               ; preds = %41
  %65 = load ptr, ptr %11, align 8
  %66 = load i32, ptr %12, align 4
  %67 = load ptr, ptr %13, align 8
  %68 = load ptr, ptr %14, align 8
  %69 = load ptr, ptr %16, align 8
  %70 = call i32 @dissect_block(ptr noundef %65, i32 noundef %66, ptr noundef %67, ptr noundef %68, ptr noundef %69, ptr noundef %22, ptr noundef %23, ptr noundef %24)
  br label %71

71:                                               ; preds = %64, %41
  %72 = load i32, ptr %12, align 4
  store i32 %72, ptr %10, align 4
  br label %73

73:                                               ; preds = %71, %32
  %74 = load i32, ptr %10, align 4
  ret i32 %74
}