; Function Attrs: nounwind uwtable
define internal fastcc void @dissect_PDPortFODataReal_block(ptr noundef %0, i32 noundef %1, ptr noundef %2, ptr noundef %3, ptr noundef %4, ptr noundef %5, i8 noundef zeroext %6, i8 noundef zeroext %7, i16 noundef zeroext %8) unnamed_addr #0 {
  %10 = alloca i32, align 4
  %11 = alloca i32, align 4
  %12 = alloca i16, align 2
  %13 = alloca i32, align 4
  %14 = alloca ptr, align 8
  store i16 0, ptr %12, align 2
  store ptr null, ptr %14, align 8
  %15 = icmp ne i8 %6, 1
  %16 = icmp ne i8 %7, 0
  %or.cond = or i1 %15, %16
  br i1 %or.cond, label %17, label %21

17:                                               ; preds = %9
  %18 = zext i8 %7 to i32
  %19 = zext i8 %6 to i32
  %20 = tail call ptr (ptr, ptr, ptr, ptr, ...) @expert_add_info_format(ptr noundef %2, ptr noundef %4, ptr noundef nonnull @ei_pn_io_block_version, ptr noundef nonnull @.str.1317, i32 noundef %19, i32 noundef %18) #11
  br label %29

21:                                               ; preds = %9
  %22 = tail call i32 @dissect_pn_align4(ptr noundef %0, i32 noundef %1, ptr noundef %2, ptr noundef %3) #11
  %23 = load i32, ptr @hf_pn_io_fiber_optic_type, align 4
  %24 = call i32 @dissect_dcerpc_uint32(ptr noundef %0, i32 noundef %22, ptr noundef %2, ptr noundef %3, ptr noundef %5, i32 noundef %23, ptr noundef nonnull %10) #11
  %25 = load i32, ptr @hf_pn_io_fiber_optic_cable_type, align 4
  %26 = call i32 @dissect_dcerpc_uint32(ptr noundef %0, i32 noundef %24, ptr noundef %2, ptr noundef %3, ptr noundef %5, i32 noundef %25, ptr noundef nonnull %11) #11
  %.not = icmp eq i16 %8, 10
  br i1 %.not, label %29, label %27

27:                                               ; preds = %21
  %28 = call fastcc i32 @dissect_block(ptr noundef %0, i32 noundef %26, ptr noundef %2, ptr noundef %3, ptr noundef %5, ptr noundef %12, ptr noundef %13, ptr noundef %14)
  br label %29

29:                                               ; preds = %21, %27, %17
  ret void
}